target datalayout = "e-m:e-p270:32:32-p271:32:32-p272:64:64-i64:64-i128:128-f80:128-n8:16:32:64-S128"
target triple = "x86_64-pc-linux-gnu"

%struct.tls_buffer_st = type { ptr, i64, i64, i64, i64, i32, i32 }
%struct.tls_rl_record_st = type { i32, i32, i64, i64, i64, ptr, ptr, ptr, i16, [8 x i8] }
%struct.ossl_record_layer_st = type { ptr, ptr, i32, i32, i32, i32, i32, ptr, i16, ptr, ptr, ptr, i64, i32, [33 x %struct.tls_buffer_st], i64, i64, %struct.tls_buffer_st, [32 x %struct.tls_rl_record_st], i64, i64, i64, i32, ptr, i64, [8 x i8], i32, i32, i64, i32, ptr, ptr, i64, ptr, ptr, i32, i32, i32, i64, i64, i64, [64 x i8], i32, i32, i32, ptr, ptr, i32, i32, i64, ptr, ptr, %struct.dtls_bitmap_st, %struct.dtls_bitmap_st, i32, ptr, ptr, ptr, ptr, ptr, i64, ptr }
%struct.dtls_bitmap_st = type { i64, [8 x i8] }

@.str.17 = private unnamed_addr constant [3 x i8] c"RH\00", align 1
@.str.18 = private unnamed_addr constant [12 x i8] c"read header\00", align 1
@.str.19 = private unnamed_addr constant [3 x i8] c"RB\00", align 1
@.str.20 = private unnamed_addr constant [10 x i8] c"read body\00", align 1
@.str.21 = private unnamed_addr constant [8 x i8] c"unknown\00", align 1

; Function Attrs: nounwind uwtable
define void @tls_get_state(ptr noundef %0, ptr noundef %1, ptr noundef %2) #0 {
  %4 = alloca ptr, align 8
  %5 = alloca ptr, align 8
  %6 = alloca ptr, align 8
  %7 = alloca ptr, align 8
  %8 = alloca ptr, align 8
  store ptr %0, ptr %4, align 8, !tbaa !16
  store ptr %1, ptr %5, align 8, !tbaa !119
  store ptr %2, ptr %6, align 8, !tbaa !119
  call void @llvm.lifetime.start.p0(i64 8, ptr %7) #10
  call void @llvm.lifetime.start.p0(i64 8, ptr %8) #10
  %9 = load ptr, ptr %4, align 8, !tbaa !16
  %10 = getelementptr inbounds nuw %struct.ossl_record_layer_st, ptr %9, i32 0, i32 22
  %11 = load i32, ptr %10, align 8, !tbaa !72
  switch i32 %11, label %14 [
    i32 240, label %12
    i32 241, label %13
  ]

12:                                               ; preds = %3
  store ptr @.str.17, ptr %7, align 8, !tbaa !15
  store ptr @.str.18, ptr %8, align 8, !tbaa !15
  br label %15

13:                                               ; preds = %3
  store ptr @.str.19, ptr %7, align 8, !tbaa !15
  store ptr @.str.20, ptr %8, align 8, !tbaa !15
  br label %15

14:                                               ; preds = %3
  store ptr @.str.21, ptr %8, align 8, !tbaa !15
  store ptr @.str.21, ptr %7, align 8, !tbaa !15
  br label %15

15:                                               ; preds = %14, %13, %12
  %16 = load ptr, ptr %5, align 8, !tbaa !119
  %17 = icmp ne ptr %16, null
  br i1 %17, label %18, label %21

18:                                               ; preds = %15
  %19 = load ptr, ptr %7, align 8, !tbaa !15
  %20 = load ptr, ptr %5, align 8, !tbaa !119
  store ptr %19, ptr %20, align 8, !tbaa !15
  br label %21

21:                                               ; preds = %18, %15
  %22 = load ptr, ptr %6, align 8, !tbaa !119
  %23 = icmp ne ptr %22, null
  br i1 %23, label %24, label %27

24:                                               ; preds = %21
  %25 = load ptr, ptr %8, align 8, !tbaa !15
  %26 = load ptr, ptr %6, align 8, !tbaa !119
  store ptr %25, ptr %26, align 8, !tbaa !15
  br label %27

27:                                               ; preds = %24, %21
  call void @llvm.lifetime.end.p0(i64 8, ptr %8) #10
  call void @llvm.lifetime.end.p0(i64 8, ptr %7) #10
  ret void
}