; Function Attrs: mustprogress nofree norecurse nosync nounwind willreturn memory(argmem: readwrite) uwtable
define void @tls_get_state(ptr noundef readonly captures(none) %0, ptr noundef writeonly captures(address_is_null) %1, ptr noundef writeonly captures(address_is_null) %2) #2 {
  %4 = getelementptr inbounds nuw i8, ptr %0, i64 4072
  %5 = load i32, ptr %4, align 8, !tbaa !55
  switch i32 %5, label %7 [
    i32 240, label %8
    i32 241, label %6
  ]

6:                                                ; preds = %3
  br label %8

7:                                                ; preds = %3
  br label %8

8:                                                ; preds = %3, %7, %6
  %.07 = phi ptr [ @.str.21, %7 ], [ @.str.19, %6 ], [ @.str.17, %3 ]
  %.0 = phi ptr [ @.str.21, %7 ], [ @.str.20, %6 ], [ @.str.18, %3 ]
  %.not = icmp eq ptr %1, null
  br i1 %.not, label %10, label %9

9:                                                ; preds = %8
  store ptr %.07, ptr %1, align 8, !tbaa !27
  br label %10

10:                                               ; preds = %9, %8
  %.not10 = icmp eq ptr %2, null
  br i1 %.not10, label %12, label %11

11:                                               ; preds = %10
  store ptr %.0, ptr %2, align 8, !tbaa !27
  br label %12

12:                                               ; preds = %11, %10
  ret void
}